; Function Attrs: mustprogress nofree norecurse nosync nounwind willreturn memory(argmem: write) uwtable
define dso_local void @_ZN3ozz9animation7offline12RawAnimationC2Ev(ptr noundef nonnull align 8 dereferenceable(64) initializes((0, 28)) %0) unnamed_addr #0 align 2 personality ptr @__gxx_personality_v0 {
  tail call void @llvm.memset.p0.i64(ptr noundef nonnull align 8 dereferenceable(24) %0, i8 0, i64 24, i1 false)
  %2 = getelementptr inbounds nuw i8, ptr %0, i64 24
  store float 1.000000e+00, ptr %2, align 8, !tbaa !4
  %3 = getelementptr inbounds nuw i8, ptr %0, i64 32
  %4 = getelementptr inbounds nuw i8, ptr %0, i64 48
  store ptr %4, ptr %3, align 8, !tbaa !19
  %5 = getelementptr inbounds nuw i8, ptr %0, i64 40
  store i64 0, ptr %5, align 8, !tbaa !20
  store i8 0, ptr %4, align 8, !tbaa !21
  ret void
}